; Function Attrs: mustprogress uwtable
define void @_ZNK5arrow7compute10Expression4BindERKNS_10TypeHolderEPNS0_11ExecContextE(ptr noalias sret(%"class.arrow::Result.131") align 8 %agg.result, ptr nocapture noundef nonnull readonly align 8 dereferenceable(16) %this, ptr nocapture noundef nonnull readonly align 8 dereferenceable(24) %in, ptr noundef %exec_context) local_unnamed_addr #0 align 2 personality ptr @__gxx_personality_v0 {
entry:
  %agg.tmp = alloca %"class.arrow::compute::Expression", align 16
  %_M_refcount.i.i.i = getelementptr inbounds i8, ptr %agg.tmp, i64 8
  %0 = load <2 x ptr>, ptr %this, align 8
  store <2 x ptr> %0, ptr %agg.tmp, align 16
  %1 = extractelement <2 x ptr> %0, i64 1
  %cmp.not.i.i.i.i = icmp eq ptr %1, null
  br i1 %cmp.not.i.i.i.i, label %_ZN5arrow7compute10ExpressionC2ERKS1_.exit, label %if.then.i.i.i.i

if.then.i.i.i.i:                                  ; preds = %entry
  %_M_use_count.i.i.i.i.i = getelementptr inbounds i8, ptr %1, i64 8
  %2 = load i8, ptr @__libc_single_threaded, align 1
  %tobool.i.i.not.i.i.i.i.i = icmp eq i8 %2, 0
  br i1 %tobool.i.i.not.i.i.i.i.i, label %if.else.i.i.i.i.i.i, label %if.then.i.i.i.i.i.i

if.then.i.i.i.i.i.i:                              ; preds = %if.then.i.i.i.i
  %3 = load i32, ptr %_M_use_count.i.i.i.i.i, align 4
  %add.i.i.i.i.i.i = add nsw i32 %3, 1
  store i32 %add.i.i.i.i.i.i, ptr %_M_use_count.i.i.i.i.i, align 4
  br label %_ZN5arrow7compute10ExpressionC2ERKS1_.exit

if.else.i.i.i.i.i.i:                              ; preds = %if.then.i.i.i.i
  %4 = atomicrmw volatile add ptr %_M_use_count.i.i.i.i.i, i32 1 acq_rel, align 4
  br label %_ZN5arrow7compute10ExpressionC2ERKS1_.exit

_ZN5arrow7compute10ExpressionC2ERKS1_.exit:       ; preds = %entry, %if.then.i.i.i.i.i.i, %if.else.i.i.i.i.i.i
  %5 = load ptr, ptr %in, align 8
  invoke fastcc void @_ZN5arrow7compute12_GLOBAL__N_18BindImplINS_8DataTypeEEENS_6ResultINS0_10ExpressionEEES5_RKT_PNS0_11ExecContextE(ptr noalias align 8 %agg.result, ptr noundef nonnull %agg.tmp, ptr noundef nonnull align 8 dereferenceable(72) %5, ptr noundef %exec_context)
          to label %invoke.cont unwind label %lpad

invoke.cont:                                      ; preds = %_ZN5arrow7compute10ExpressionC2ERKS1_.exit
  %6 = load ptr, ptr %_M_refcount.i.i.i, align 8
  %cmp.not.i.i.i.i2 = icmp eq ptr %6, null
  br i1 %cmp.not.i.i.i.i2, label %_ZN5arrow7compute10ExpressionD2Ev.exit, label %if.then.i.i.i.i3

if.then.i.i.i.i3:                                 ; preds = %invoke.cont
  %_M_use_count.i.i.i.i.i4 = getelementptr inbounds i8, ptr %6, i64 8
  %7 = load atomic i64, ptr %_M_use_count.i.i.i.i.i4 acquire, align 8
  %cmp.i.i.i.i.i = icmp eq i64 %7, 4294967297
  %8 = trunc i64 %7 to i32
  br i1 %cmp.i.i.i.i.i, label %if.then.i.i.i.i.i, label %if.end.i.i.i.i.i

if.then.i.i.i.i.i:                                ; preds = %if.then.i.i.i.i3
  store i32 0, ptr %_M_use_count.i.i.i.i.i4, align 8
  %_M_weak_count.i.i.i.i.i = getelementptr inbounds i8, ptr %6, i64 12
  store i32 0, ptr %_M_weak_count.i.i.i.i.i, align 4
  %vtable.i.i.i.i.i = load ptr, ptr %6, align 8
  %vfn.i.i.i.i.i = getelementptr inbounds i8, ptr %vtable.i.i.i.i.i, i64 16
  %9 = load ptr, ptr %vfn.i.i.i.i.i, align 8
  tail call void %9(ptr noundef nonnull align 8 dereferenceable(16) %6) #25
  br label %if.end8.sink.split.i.i.i.i.i

if.end.i.i.i.i.i:                                 ; preds = %if.then.i.i.i.i3
  %10 = load i8, ptr @__libc_single_threaded, align 1
  %tobool.i.not.i.i.i.i.i = icmp eq i8 %10, 0
  br i1 %tobool.i.not.i.i.i.i.i, label %if.else.i.i.i.i.i.i7, label %if.then.i.i.i.i.i.i5

if.then.i.i.i.i.i.i5:                             ; preds = %if.end.i.i.i.i.i
  %add.i.i.i.i.i.i6 = add nsw i32 %8, -1
  store i32 %add.i.i.i.i.i.i6, ptr %_M_use_count.i.i.i.i.i4, align 4
  br label %_ZN9__gnu_cxx27__exchange_and_add_dispatchEPii.exit.i.i.i.i.i

if.else.i.i.i.i.i.i7:                             ; preds = %if.end.i.i.i.i.i
  %11 = atomicrmw volatile add ptr %_M_use_count.i.i.i.i.i4, i32 -1 acq_rel, align 4
  br label %_ZN9__gnu_cxx27__exchange_and_add_dispatchEPii.exit.i.i.i.i.i

_ZN9__gnu_cxx27__exchange_and_add_dispatchEPii.exit.i.i.i.i.i: ; preds = %if.else.i.i.i.i.i.i7, %if.then.i.i.i.i.i.i5
  %retval.i.0.i.i.i.i.i = phi i32 [ %8, %if.then.i.i.i.i.i.i5 ], [ %11, %if.else.i.i.i.i.i.i7 ]
  %cmp6.i.i.i.i.i = icmp eq i32 %retval.i.0.i.i.i.i.i, 1
  br i1 %cmp6.i.i.i.i.i, label %if.then7.i.i.i.i.i, label %_ZN5arrow7compute10ExpressionD2Ev.exit

if.then7.i.i.i.i.i:                               ; preds = %_ZN9__gnu_cxx27__exchange_and_add_dispatchEPii.exit.i.i.i.i.i
  %vtable.i.i.i.i.i.i.i = load ptr, ptr %6, align 8
  %vfn.i.i.i.i.i.i.i = getelementptr inbounds i8, ptr %vtable.i.i.i.i.i.i.i, i64 16
  %12 = load ptr, ptr %vfn.i.i.i.i.i.i.i, align 8
  tail call void %12(ptr noundef nonnull align 8 dereferenceable(16) %6) #25
  %_M_weak_count.i.i.i.i.i.i.i = getelementptr inbounds i8, ptr %6, i64 12
  %13 = load i8, ptr @__libc_single_threaded, align 1
  %tobool.i.not.i.i.i.i.i.i.i = icmp eq i8 %13, 0
  br i1 %tobool.i.not.i.i.i.i.i.i.i, label %if.else.i.i.i.i.i.i.i.i, label %if.then.i.i.i.i.i.i.i.i

if.then.i.i.i.i.i.i.i.i:                          ; preds = %if.then7.i.i.i.i.i
  %14 = load i32, ptr %_M_weak_count.i.i.i.i.i.i.i, align 4
  %add.i.i.i.i.i.i.i.i = add nsw i32 %14, -1
  store i32 %add.i.i.i.i.i.i.i.i, ptr %_M_weak_count.i.i.i.i.i.i.i, align 4
  br label %_ZN9__gnu_cxx27__exchange_and_add_dispatchEPii.exit.i.i.i.i.i.i.i

if.else.i.i.i.i.i.i.i.i:                          ; preds = %if.then7.i.i.i.i.i
  %15 = atomicrmw volatile add ptr %_M_weak_count.i.i.i.i.i.i.i, i32 -1 acq_rel, align 4
  br label %_ZN9__gnu_cxx27__exchange_and_add_dispatchEPii.exit.i.i.i.i.i.i.i

_ZN9__gnu_cxx27__exchange_and_add_dispatchEPii.exit.i.i.i.i.i.i.i: ; preds = %if.else.i.i.i.i.i.i.i.i, %if.then.i.i.i.i.i.i.i.i
  %retval.i.0.i.i.i.i.i.i.i = phi i32 [ %14, %if.then.i.i.i.i.i.i.i.i ], [ %15, %if.else.i.i.i.i.i.i.i.i ]
  %cmp.i.i.i.i.i.i.i = icmp eq i32 %retval.i.0.i.i.i.i.i.i.i, 1
  br i1 %cmp.i.i.i.i.i.i.i, label %if.end8.sink.split.i.i.i.i.i, label %_ZN5arrow7compute10ExpressionD2Ev.exit

if.end8.sink.split.i.i.i.i.i:                     ; preds = %_ZN9__gnu_cxx27__exchange_and_add_dispatchEPii.exit.i.i.i.i.i.i.i, %if.then.i.i.i.i.i
  %vtable2.i.i.i.i.i.i.i = load ptr, ptr %6, align 8
  %vfn3.i.i.i.i.i.i.i = getelementptr inbounds i8, ptr %vtable2.i.i.i.i.i.i.i, i64 24
  %16 = load ptr, ptr %vfn3.i.i.i.i.i.i.i, align 8
  tail call void %16(ptr noundef nonnull align 8 dereferenceable(16) %6) #25
  br label %_ZN5arrow7compute10ExpressionD2Ev.exit

_ZN5arrow7compute10ExpressionD2Ev.exit:           ; preds = %invoke.cont, %_ZN9__gnu_cxx27__exchange_and_add_dispatchEPii.exit.i.i.i.i.i, %_ZN9__gnu_cxx27__exchange_and_add_dispatchEPii.exit.i.i.i.i.i.i.i, %if.end8.sink.split.i.i.i.i.i
  ret void

lpad:                                             ; preds = %_ZN5arrow7compute10ExpressionC2ERKS1_.exit
  %17 = landingpad { ptr, i32 }
          cleanup
  call void @_ZN5arrow7compute10ExpressionD2Ev(ptr noundef nonnull align 8 dereferenceable(16) %agg.tmp) #25
  resume { ptr, i32 } %17
}